target datalayout = "e-m:e-p270:32:32-p271:32:32-p272:64:64-i64:64-i128:128-f80:128-n8:16:32:64-S128"
target triple = "x86_64-pc-linux-gnu"

%struct.H5D_virtual_held_file_t = type { ptr, ptr }

@H5D_init_g = external global i8, align 1
@H5_libterm_g = external global i8, align 1
@.str.1 = private unnamed_addr constant [104 x i8] c"generated/home/dtcxzyw/WorkSpace/Projects/compilers/llvm-opt-benchmark/bench/hdf5/hdf5/src/H5Dvirtual.c\00", align 1
@H5E_DATASET_g = external global i64, align 8
@__func__.H5D__virtual_release_source_dset_files = private unnamed_addr constant [39 x i8] c"H5D__virtual_release_source_dset_files\00", align 1
@H5E_CANTCLOSEFILE_g = external global i64, align 8
@.str.72 = private unnamed_addr constant [30 x i8] c"problem attempting file close\00", align 1
@H5_H5D_virtual_held_file_t_reg_free_list = internal global { i8, [3 x i8], i32, i32, [4 x i8], ptr, i64, ptr } { i8 0, [3 x i8] zeroinitializer, i32 0, i32 0, [4 x i8] zeroinitializer, ptr @.str.107, i64 16, ptr null }, align 8

; Function Attrs: nounwind uwtable
define i32 @H5D__virtual_release_source_dset_files(ptr noundef %0) #0 {
  %2 = alloca i32, align 4
  %3 = alloca ptr, align 8
  %4 = alloca i32, align 4
  %5 = alloca i8, align 1
  %6 = alloca ptr, align 8
  %7 = alloca i32, align 4
  store ptr %0, ptr %3, align 8, !tbaa !193
  call void @llvm.lifetime.start.p0(i64 4, ptr %4) #10
  store i32 0, ptr %4, align 4, !tbaa !12
  call void @llvm.lifetime.start.p0(i64 1, ptr %5) #10
  store i8 0, ptr %5, align 1, !tbaa !14
  %8 = load i8, ptr @H5D_init_g, align 1, !tbaa !14, !range !16, !noundef !17
  %9 = trunc i8 %8 to i1
  br i1 %9, label %14, label %10

10:                                               ; preds = %1
  %11 = load i8, ptr @H5_libterm_g, align 1, !tbaa !14, !range !16, !noundef !17
  %12 = trunc i8 %11 to i1
  %13 = xor i1 %12, true
  br label %14

14:                                               ; preds = %10, %1
  %15 = phi i1 [ true, %1 ], [ %13, %10 ]
  %16 = xor i1 %15, true
  %17 = xor i1 %16, true
  %18 = zext i1 %17 to i32
  %19 = sext i32 %18 to i64
  %20 = call i64 @llvm.expect.i64(i64 %19, i64 1)
  %21 = icmp ne i64 %20, 0
  br i1 %21, label %22, label %67

22:                                               ; preds = %14
  br label %23

23:                                               ; preds = %64, %22
  %24 = load ptr, ptr %3, align 8, !tbaa !193
  %25 = icmp ne ptr %24, null
  br i1 %25, label %26, label %65

26:                                               ; preds = %23
  call void @llvm.lifetime.start.p0(i64 8, ptr %6) #10
  %27 = load ptr, ptr %3, align 8, !tbaa !193
  %28 = getelementptr inbounds nuw %struct.H5D_virtual_held_file_t, ptr %27, i32 0, i32 1
  %29 = load ptr, ptr %28, align 8, !tbaa !197
  store ptr %29, ptr %6, align 8, !tbaa !193
  %30 = load ptr, ptr %3, align 8, !tbaa !193
  %31 = getelementptr inbounds nuw %struct.H5D_virtual_held_file_t, ptr %30, i32 0, i32 0
  %32 = load ptr, ptr %31, align 8, !tbaa !195
  %33 = call i32 @H5F_decr_nopen_objs(ptr noundef %32)
  %34 = load ptr, ptr %3, align 8, !tbaa !193
  %35 = getelementptr inbounds nuw %struct.H5D_virtual_held_file_t, ptr %34, i32 0, i32 0
  %36 = load ptr, ptr %35, align 8, !tbaa !195
  %37 = call i32 @H5F_try_close(ptr noundef %36, ptr noundef null)
  %38 = icmp slt i32 %37, 0
  br i1 %38, label %39, label %58

39:                                               ; preds = %26
  br label %40

40:                                               ; preds = %39
  br label %41

41:                                               ; preds = %40
  br label %42

42:                                               ; preds = %41
  %43 = load i64, ptr @H5E_DATASET_g, align 8, !tbaa !10
  %44 = load i64, ptr @H5E_CANTCLOSEFILE_g, align 8, !tbaa !10
  %45 = call i32 (ptr, ptr, i32, i64, i64, ptr, ...) @H5E_printf_stack(ptr noundef @.str.1, ptr noundef @__func__.H5D__virtual_release_source_dset_files, i32 noundef 3219, i64 noundef %43, i64 noundef %44, ptr noundef @.str.72)
  br label %46

46:                                               ; preds = %42
  br label %47

47:                                               ; preds = %46
  store i8 1, ptr %5, align 1, !tbaa !14
  %48 = load i8, ptr %5, align 1, !tbaa !14, !range !16, !noundef !17
  %49 = trunc i8 %48 to i1
  %50 = zext i1 %49 to i8
  store i8 %50, ptr %5, align 1, !tbaa !14
  br label %51

51:                                               ; preds = %47
  br label %52

52:                                               ; preds = %51
  br label %53

53:                                               ; preds = %52
  store i32 -1, ptr %4, align 4, !tbaa !12
  store i32 12, ptr %7, align 4
  br label %62

54:                                               ; No predecessors!
  br label %55

55:                                               ; preds = %54
  br label %56

56:                                               ; preds = %55
  br label %57

57:                                               ; preds = %56
  br label %58

58:                                               ; preds = %57, %26
  %59 = load ptr, ptr %3, align 8, !tbaa !193
  %60 = call ptr @H5FL_reg_free(ptr noundef @H5_H5D_virtual_held_file_t_reg_free_list, ptr noundef %59)
  %61 = load ptr, ptr %6, align 8, !tbaa !193
  store ptr %61, ptr %3, align 8, !tbaa !193
  store i32 0, ptr %7, align 4
  br label %62

62:                                               ; preds = %53, %58
  call void @llvm.lifetime.end.p0(i64 8, ptr %6) #10
  %63 = load i32, ptr %7, align 4
  switch i32 %63, label %69 [
    i32 0, label %64
    i32 12, label %66
  ]

64:                                               ; preds = %62
  br label %23, !llvm.loop !200

65:                                               ; preds = %23
  br label %66

66:                                               ; preds = %65, %62
  br label %67

67:                                               ; preds = %66, %14
  %68 = load i32, ptr %4, align 4, !tbaa !12
  store i32 %68, ptr %2, align 4
  store i32 1, ptr %7, align 4
  br label %69

69:                                               ; preds = %67, %62
  call void @llvm.lifetime.end.p0(i64 1, ptr %5) #10
  call void @llvm.lifetime.end.p0(i64 4, ptr %4) #10
  %70 = load i32, ptr %2, align 4
  ret i32 %70
}