; Function Attrs: nounwind uwtable
define range(i32 -1, 1) i32 @H5D__virtual_release_source_dset_files(ptr noundef %0) local_unnamed_addr #0 {
  %2 = load i8, ptr @H5D_init_g, align 1, !tbaa !3, !range !7, !noundef !8
  %3 = trunc nuw i8 %2 to i1
  %4 = load i8, ptr @H5_libterm_g, align 1, !range !7
  %5 = trunc nuw i8 %4 to i1
  %6 = xor i1 %5, true
  %7 = select i1 %3, i1 true, i1 %6
  %8 = icmp ne ptr %0, null
  %or.cond = and i1 %8, %7
  br i1 %or.cond, label %.preheader, label %.loopexit, !prof !144

.preheader:                                       ; preds = %1, %19
  %.012 = phi ptr [ %10, %19 ], [ %0, %1 ]
  %9 = getelementptr inbounds nuw i8, ptr %.012, i64 8
  %10 = load ptr, ptr %9, align 8, !tbaa !174
  %11 = load ptr, ptr %.012, align 8, !tbaa !170
  %12 = tail call i32 @H5F_decr_nopen_objs(ptr noundef %11) #14
  %13 = load ptr, ptr %.012, align 8, !tbaa !170
  %14 = tail call i32 @H5F_try_close(ptr noundef %13, ptr noundef null) #14
  %15 = icmp slt i32 %14, 0
  br i1 %15, label %.thread, label %19

.thread:                                          ; preds = %.preheader
  %16 = load i64, ptr @H5E_DATASET_g, align 8, !tbaa !24
  %17 = load i64, ptr @H5E_CANTCLOSEFILE_g, align 8, !tbaa !24
  %18 = tail call i32 (ptr, ptr, i32, i64, i64, ptr, ...) @H5E_printf_stack(ptr noundef nonnull @.str.1, ptr noundef nonnull @__func__.H5D__virtual_release_source_dset_files, i32 noundef 3219, i64 noundef %16, i64 noundef %17, ptr noundef nonnull @.str.72) #14
  br label %.loopexit

19:                                               ; preds = %.preheader
  %20 = tail call ptr @H5FL_reg_free(ptr noundef nonnull @H5_H5D_virtual_held_file_t_reg_free_list, ptr noundef nonnull %.012) #14
  %.old1.not = icmp eq ptr %10, null
  br i1 %.old1.not, label %.loopexit, label %.preheader

.loopexit:                                        ; preds = %19, %.thread, %1
  %.010 = phi i32 [ 0, %1 ], [ -1, %.thread ], [ 0, %19 ]
  ret i32 %.010
}